target datalayout = "e-m:e-p270:32:32-p271:32:32-p272:64:64-i64:64-i128:128-f80:128-n8:16:32:64-S128"
target triple = "x86_64-unknown-linux-gnu"

%class.opt_stream_buffer = type { ptr, i32, i32 }

; Function Attrs: mustprogress uwtable
define linkonce_odr hidden void @_ZN17opt_stream_buffer4nextEv(ptr noundef nonnull align 8 dereferenceable(16) %this) #5 comdat align 2 {
entry:
  %this.addr = alloca ptr, align 8
  store ptr %this, ptr %this.addr, align 8
  %this1 = load ptr, ptr %this.addr, align 8
  %m_stream = getelementptr inbounds %class.opt_stream_buffer, ptr %this1, i32 0, i32 0
  %0 = load ptr, ptr %m_stream, align 8
  %call = call noundef i32 @_ZNSi3getEv(ptr noundef nonnull align 8 dereferenceable(16) %0)
  %m_val = getelementptr inbounds %class.opt_stream_buffer, ptr %this1, i32 0, i32 1
  store i32 %call, ptr %m_val, align 8
  ret void
}

; Function Attrs: mustprogress nounwind uwtable
define linkonce_odr hidden noundef i32 @_ZNK17opt_stream_buffer2chEv(ptr noundef nonnull align 8 dereferenceable(16) %this) #4 comdat align 2 {
entry:
  %this.addr = alloca ptr, align 8
  store ptr %this, ptr %this.addr, align 8
  %this1 = load ptr, ptr %this.addr, align 8
  %m_val = getelementptr inbounds %class.opt_stream_buffer, ptr %this1, i32 0, i32 1
  %0 = load i32, ptr %m_val, align 8
  ret i32 %0
}

; Function Attrs: mustprogress uwtable
define linkonce_odr hidden void @_ZN17opt_stream_buffer15skip_whitespaceEv(ptr noundef nonnull align 8 dereferenceable(16) %this) #5 comdat align 2 {
entry:
  %this.addr = alloca ptr, align 8
  store ptr %this, ptr %this.addr, align 8
  %this1 = load ptr, ptr %this.addr, align 8
  br label %while.cond

while.cond:                                       ; preds = %if.end, %entry
  %call = call noundef i32 @_ZNK17opt_stream_buffer2chEv(ptr noundef nonnull align 8 dereferenceable(16) %this1)
  %cmp = icmp sge i32 %call, 9
  br i1 %cmp, label %land.lhs.true, label %lor.rhs

land.lhs.true:                                    ; preds = %while.cond
  %call2 = call noundef i32 @_ZNK17opt_stream_buffer2chEv(ptr noundef nonnull align 8 dereferenceable(16) %this1)
  %cmp3 = icmp sle i32 %call2, 13
  br i1 %cmp3, label %lor.end, label %lor.rhs

lor.rhs:                                          ; preds = %land.lhs.true, %while.cond
  %call4 = call noundef i32 @_ZNK17opt_stream_buffer2chEv(ptr noundef nonnull align 8 dereferenceable(16) %this1)
  %cmp5 = icmp eq i32 %call4, 32
  br label %lor.end

lor.end:                                          ; preds = %lor.rhs, %land.lhs.true
  %0 = phi i1 [ true, %land.lhs.true ], [ %cmp5, %lor.rhs ]
  br i1 %0, label %while.body, label %while.end

while.body:                                       ; preds = %lor.end
  %call6 = call noundef i32 @_ZNK17opt_stream_buffer2chEv(ptr noundef nonnull align 8 dereferenceable(16) %this1)
  %cmp7 = icmp eq i32 %call6, 10
  br i1 %cmp7, label %if.then, label %if.end

if.then:                                          ; preds = %while.body
  %m_line = getelementptr inbounds %class.opt_stream_buffer, ptr %this1, i32 0, i32 2
  %1 = load i32, ptr %m_line, align 4
  %inc = add i32 %1, 1
  store i32 %inc, ptr %m_line, align 4
  br label %if.end

if.end:                                           ; preds = %if.then, %while.body
  call void @_ZN17opt_stream_buffer4nextEv(ptr noundef nonnull align 8 dereferenceable(16) %this1)
  br label %while.cond, !llvm.loop !6

while.end:                                        ; preds = %lor.end
  ret void
}

; Function Attrs: mustprogress uwtable
define hidden noundef zeroext i1 @_ZN17opt_stream_buffer11parse_tokenEPKc(ptr noundef nonnull align 8 dereferenceable(16) %this, ptr noundef %token) #5 align 2 {
entry:
  %this.addr = alloca ptr, align 8
  %token.addr = alloca ptr, align 8
  %t = alloca ptr, align 8
  store ptr %this, ptr %this.addr, align 8
  store ptr %token, ptr %token.addr, align 8
  %this1 = load ptr, ptr %this.addr, align 8
  call void @_ZN17opt_stream_buffer15skip_whitespaceEv(ptr noundef nonnull align 8 dereferenceable(16) %this1)
  %0 = load ptr, ptr %token.addr, align 8
  store ptr %0, ptr %t, align 8
  br label %while.cond

while.cond:                                       ; preds = %while.body, %entry
  %call = call noundef i32 @_ZNK17opt_stream_buffer2chEv(ptr noundef nonnull align 8 dereferenceable(16) %this1)
  %1 = load ptr, ptr %t, align 8
  %2 = load i8, ptr %1, align 1
  %conv = sext i8 %2 to i32
  %cmp = icmp eq i32 %call, %conv
  br i1 %cmp, label %while.body, label %while.end

while.body:                                       ; preds = %while.cond
  call void @_ZN17opt_stream_buffer4nextEv(ptr noundef nonnull align 8 dereferenceable(16) %this1)
  %3 = load ptr, ptr %t, align 8
  %incdec.ptr = getelementptr inbounds i8, ptr %3, i32 1
  store ptr %incdec.ptr, ptr %t, align 8
  br label %while.cond, !llvm.loop !4

while.end:                                        ; preds = %while.cond
  %4 = load ptr, ptr %t, align 8
  %5 = load i8, ptr %4, align 1
  %conv2 = sext i8 %5 to i32
  %cmp3 = icmp eq i32 0, %conv2
  ret i1 %cmp3
}