; Function Attrs: mustprogress uwtable
define hidden noundef zeroext i1 @_ZN17opt_stream_buffer11parse_tokenEPKc(ptr nocapture noundef nonnull align 8 dereferenceable(16) %this, ptr nocapture noundef readonly %token) local_unnamed_addr #3 align 2 {
entry:
  %m_val.i.i = getelementptr inbounds i8, ptr %this, i64 8
  %0 = load i32, ptr %m_val.i.i, align 8
  %cmp8.i = icmp sgt i32 %0, 8
  br i1 %cmp8.i, label %land.lhs.true.lr.ph.i, label %_ZN17opt_stream_buffer15skip_whitespaceEv.exit

land.lhs.true.lr.ph.i:                            ; preds = %entry
  %m_line.i = getelementptr inbounds i8, ptr %this, i64 12
  br label %land.lhs.true.i

land.lhs.true.i:                                  ; preds = %if.end.i, %land.lhs.true.lr.ph.i
  %1 = phi i32 [ %0, %land.lhs.true.lr.ph.i ], [ %call.i.i, %if.end.i ]
  %cmp3.i = icmp ult i32 %1, 14
  br i1 %cmp3.i, label %while.body.i, label %lor.rhs.i

lor.rhs.i:                                        ; preds = %land.lhs.true.i
  %cmp5.i = icmp eq i32 %1, 32
  br i1 %cmp5.i, label %if.end.i, label %_ZN17opt_stream_buffer15skip_whitespaceEv.exit

while.body.i:                                     ; preds = %land.lhs.true.i
  %cmp7.i = icmp eq i32 %1, 10
  br i1 %cmp7.i, label %if.then.i, label %if.end.i

if.then.i:                                        ; preds = %while.body.i
  %2 = load i32, ptr %m_line.i, align 4
  %inc.i = add i32 %2, 1
  store i32 %inc.i, ptr %m_line.i, align 4
  br label %if.end.i

if.end.i:                                         ; preds = %if.then.i, %while.body.i, %lor.rhs.i
  %3 = load ptr, ptr %this, align 8
  %call.i.i = tail call noundef i32 @_ZNSi3getEv(ptr noundef nonnull align 8 dereferenceable(16) %3)
  store i32 %call.i.i, ptr %m_val.i.i, align 8
  %cmp.i = icmp sgt i32 %call.i.i, 8
  br i1 %cmp.i, label %land.lhs.true.i, label %_ZN17opt_stream_buffer15skip_whitespaceEv.exit, !llvm.loop !4

_ZN17opt_stream_buffer15skip_whitespaceEv.exit:   ; preds = %lor.rhs.i, %if.end.i, %entry
  %4 = phi i32 [ %0, %entry ], [ %1, %lor.rhs.i ], [ %call.i.i, %if.end.i ]
  %5 = load i8, ptr %token, align 1
  %conv4 = sext i8 %5 to i32
  %cmp5 = icmp eq i32 %4, %conv4
  br i1 %cmp5, label %while.body, label %while.end

while.body:                                       ; preds = %_ZN17opt_stream_buffer15skip_whitespaceEv.exit, %while.body
  %t.06 = phi ptr [ %incdec.ptr, %while.body ], [ %token, %_ZN17opt_stream_buffer15skip_whitespaceEv.exit ]
  %6 = load ptr, ptr %this, align 8
  %call.i = tail call noundef i32 @_ZNSi3getEv(ptr noundef nonnull align 8 dereferenceable(16) %6)
  store i32 %call.i, ptr %m_val.i.i, align 8
  %incdec.ptr = getelementptr inbounds i8, ptr %t.06, i64 1
  %7 = load i8, ptr %incdec.ptr, align 1
  %conv = sext i8 %7 to i32
  %cmp = icmp eq i32 %call.i, %conv
  br i1 %cmp, label %while.body, label %while.end, !llvm.loop !6

while.end:                                        ; preds = %while.body, %_ZN17opt_stream_buffer15skip_whitespaceEv.exit
  %.lcssa = phi i8 [ %5, %_ZN17opt_stream_buffer15skip_whitespaceEv.exit ], [ %7, %while.body ]
  %cmp3 = icmp eq i8 %.lcssa, 0
  ret i1 %cmp3
}